target datalayout = "e-m:e-p270:32:32-p271:32:32-p272:64:64-i64:64-i128:128-f80:128-n8:16:32:64-S128"
target triple = "x86_64-pc-linux-gnu"

%struct._xmlNode = type { ptr, i32, ptr, ptr, ptr, ptr, ptr, ptr, ptr, ptr, ptr, ptr, ptr, ptr, i16, i16 }
%struct._zval_struct = type { %union._zend_value, %union.anon, %union.anon.2 }
%union._zend_value = type { i64 }
%union.anon = type { i32 }
%union.anon.2 = type { i32 }
%struct._dom_object = type { ptr, ptr, ptr, %struct._zend_object }
%struct._zend_object = type { %struct._zend_refcounted_h, i32, ptr, ptr, ptr, [1 x %struct._zval_struct] }
%struct._zend_refcounted_h = type { i32, %union.anon.3 }
%union.anon.3 = type { i32 }
%struct._php_libxml_ref_obj = type { ptr, ptr, %struct.php_libxml_cache_tag, i32, i8 }
%struct.php_libxml_cache_tag = type { i64 }

@xmlFree = external global ptr, align 8

; Function Attrs: nounwind uwtable
define internal void @dom_fragment_assign_parent_node(ptr noundef %0, ptr noundef %1) #0 {
  %3 = alloca ptr, align 8
  %4 = alloca ptr, align 8
  %5 = alloca ptr, align 8
  store ptr %0, ptr %3, align 8
  store ptr %1, ptr %4, align 8
  %6 = load ptr, ptr %4, align 8
  %7 = getelementptr inbounds %struct._xmlNode, ptr %6, i32 0, i32 3
  %8 = load ptr, ptr %7, align 8
  store ptr %8, ptr %5, align 8
  br label %9

9:                                                ; preds = %22, %2
  %10 = load ptr, ptr %5, align 8
  %11 = icmp ne ptr %10, null
  br i1 %11, label %12, label %26

12:                                               ; preds = %9
  %13 = load ptr, ptr %3, align 8
  %14 = load ptr, ptr %5, align 8
  %15 = getelementptr inbounds %struct._xmlNode, ptr %14, i32 0, i32 5
  store ptr %13, ptr %15, align 8
  %16 = load ptr, ptr %5, align 8
  %17 = load ptr, ptr %4, align 8
  %18 = getelementptr inbounds %struct._xmlNode, ptr %17, i32 0, i32 4
  %19 = load ptr, ptr %18, align 8
  %20 = icmp eq ptr %16, %19
  br i1 %20, label %21, label %22

21:                                               ; preds = %12
  br label %26

22:                                               ; preds = %12
  %23 = load ptr, ptr %5, align 8
  %24 = getelementptr inbounds %struct._xmlNode, ptr %23, i32 0, i32 6
  %25 = load ptr, ptr %24, align 8
  store ptr %25, ptr %5, align 8
  br label %9

26:                                               ; preds = %21, %9
  %27 = load ptr, ptr %4, align 8
  %28 = getelementptr inbounds %struct._xmlNode, ptr %27, i32 0, i32 3
  store ptr null, ptr %28, align 8
  %29 = load ptr, ptr %4, align 8
  %30 = getelementptr inbounds %struct._xmlNode, ptr %29, i32 0, i32 4
  store ptr null, ptr %30, align 8
  ret void
}

; Function Attrs: nounwind uwtable
define hidden void @dom_parent_node_append(ptr noundef %0, ptr noundef %1, i32 noundef %2) #0 {
  %4 = alloca ptr, align 8
  %5 = alloca ptr, align 8
  %6 = alloca ptr, align 8
  %7 = alloca i32, align 4
  %8 = alloca ptr, align 8
  %9 = alloca ptr, align 8
  %10 = alloca ptr, align 8
  %11 = alloca ptr, align 8
  %12 = alloca ptr, align 8
  store ptr %0, ptr %5, align 8
  store ptr %1, ptr %6, align 8
  store i32 %2, ptr %7, align 4
  %13 = load ptr, ptr %5, align 8
  %14 = call ptr @dom_object_get_node(ptr noundef %13)
  store ptr %14, ptr %8, align 8
  %15 = load ptr, ptr %5, align 8
  %16 = getelementptr inbounds %struct._dom_object, ptr %15, i32 0, i32 1
  %17 = load ptr, ptr %16, align 8
  %18 = load ptr, ptr %8, align 8
  %19 = load ptr, ptr %6, align 8
  %20 = load i32, ptr %7, align 4
  %21 = call i32 @dom_sanity_check_node_list_for_insertion(ptr noundef %17, ptr noundef %18, ptr noundef %19, i32 noundef %20)
  %22 = icmp ne i32 %21, 0
  %23 = xor i1 %22, true
  %24 = xor i1 %23, true
  %25 = zext i1 %24 to i32
  %26 = sext i32 %25 to i64
  %27 = icmp ne i64 %26, 0
  br i1 %27, label %28, label %29

28:                                               ; preds = %3
  br label %92

29:                                               ; preds = %3
  %30 = load ptr, ptr %5, align 8
  %31 = getelementptr inbounds %struct._dom_object, ptr %30, i32 0, i32 1
  %32 = load ptr, ptr %31, align 8
  store ptr %32, ptr %4, align 8
  %33 = load ptr, ptr %4, align 8
  %34 = icmp ne ptr %33, null
  br i1 %34, label %36, label %35

35:                                               ; preds = %29
  br label %41

36:                                               ; preds = %29
  %37 = load ptr, ptr %4, align 8
  %38 = getelementptr inbounds %struct._php_libxml_ref_obj, ptr %37, i32 0, i32 2
  %39 = load i64, ptr %38, align 8
  %40 = add i64 %39, 1
  store i64 %40, ptr %38, align 8
  br label %41

41:                                               ; preds = %36, %35
  %42 = load ptr, ptr %5, align 8
  %43 = getelementptr inbounds %struct._dom_object, ptr %42, i32 0, i32 1
  %44 = load ptr, ptr %43, align 8
  %45 = load ptr, ptr %8, align 8
  %46 = load ptr, ptr %6, align 8
  %47 = load i32, ptr %7, align 4
  %48 = call ptr @dom_zvals_to_fragment(ptr noundef %44, ptr noundef %45, ptr noundef %46, i32 noundef %47)
  store ptr %48, ptr %11, align 8
  %49 = load ptr, ptr %11, align 8
  %50 = icmp eq ptr %49, null
  br i1 %50, label %51, label %52

51:                                               ; preds = %41
  br label %92

52:                                               ; preds = %41
  %53 = load ptr, ptr %11, align 8
  %54 = getelementptr inbounds %struct._xmlNode, ptr %53, i32 0, i32 3
  %55 = load ptr, ptr %54, align 8
  store ptr %55, ptr %9, align 8
  %56 = load ptr, ptr %8, align 8
  %57 = getelementptr inbounds %struct._xmlNode, ptr %56, i32 0, i32 4
  %58 = load ptr, ptr %57, align 8
  store ptr %58, ptr %10, align 8
  %59 = load ptr, ptr %9, align 8
  %60 = icmp ne ptr %59, null
  br i1 %60, label %61, label %89

61:                                               ; preds = %52
  %62 = load ptr, ptr %10, align 8
  %63 = icmp ne ptr %62, null
  br i1 %63, label %64, label %68

64:                                               ; preds = %61
  %65 = load ptr, ptr %9, align 8
  %66 = load ptr, ptr %10, align 8
  %67 = getelementptr inbounds %struct._xmlNode, ptr %66, i32 0, i32 6
  store ptr %65, ptr %67, align 8
  br label %72

68:                                               ; preds = %61
  %69 = load ptr, ptr %9, align 8
  %70 = load ptr, ptr %8, align 8
  %71 = getelementptr inbounds %struct._xmlNode, ptr %70, i32 0, i32 3
  store ptr %69, ptr %71, align 8
  br label %72

72:                                               ; preds = %68, %64
  %73 = load ptr, ptr %11, align 8
  %74 = getelementptr inbounds %struct._xmlNode, ptr %73, i32 0, i32 4
  %75 = load ptr, ptr %74, align 8
  store ptr %75, ptr %12, align 8
  %76 = load ptr, ptr %12, align 8
  %77 = load ptr, ptr %8, align 8
  %78 = getelementptr inbounds %struct._xmlNode, ptr %77, i32 0, i32 4
  store ptr %76, ptr %78, align 8
  %79 = load ptr, ptr %10, align 8
  %80 = load ptr, ptr %9, align 8
  %81 = getelementptr inbounds %struct._xmlNode, ptr %80, i32 0, i32 7
  store ptr %79, ptr %81, align 8
  %82 = load ptr, ptr %8, align 8
  %83 = load ptr, ptr %11, align 8
  call void @dom_fragment_assign_parent_node(ptr noundef %82, ptr noundef %83)
  %84 = load ptr, ptr %8, align 8
  %85 = getelementptr inbounds %struct._xmlNode, ptr %84, i32 0, i32 8
  %86 = load ptr, ptr %85, align 8
  %87 = load ptr, ptr %9, align 8
  %88 = load ptr, ptr %12, align 8
  call void @dom_reconcile_ns_list(ptr noundef %86, ptr noundef %87, ptr noundef %88)
  br label %89

89:                                               ; preds = %72, %52
  %90 = load ptr, ptr @xmlFree, align 8
  %91 = load ptr, ptr %11, align 8
  call void %90(ptr noundef %91)
  br label %92

92:                                               ; preds = %89, %51, %28
  ret void
}