; Function Attrs: nounwind uwtable
define hidden void @dom_parent_node_append(ptr noundef %0, ptr noundef %1, i32 noundef %2) local_unnamed_addr #0 {
  %4 = tail call ptr @dom_object_get_node(ptr noundef %0) #3
  %5 = getelementptr inbounds i8, ptr %0, i64 8
  %6 = load ptr, ptr %5, align 8
  %7 = tail call fastcc i32 @dom_sanity_check_node_list_for_insertion(ptr noundef %6, ptr noundef %4, ptr noundef %1, i32 noundef %2), !range !4
  %.not = icmp eq i32 %7, 0
  br i1 %.not, label %8, label %38

8:                                                ; preds = %3
  %9 = load ptr, ptr %5, align 8
  %.not34 = icmp eq ptr %9, null
  br i1 %.not34, label %14, label %10

10:                                               ; preds = %8
  %11 = getelementptr inbounds i8, ptr %9, i64 16
  %12 = load i64, ptr %11, align 8
  %13 = add i64 %12, 1
  store i64 %13, ptr %11, align 8
  %.pre = load ptr, ptr %5, align 8
  br label %14

14:                                               ; preds = %8, %10
  %15 = phi ptr [ null, %8 ], [ %.pre, %10 ]
  %16 = tail call ptr @dom_zvals_to_fragment(ptr noundef %15, ptr noundef %4, ptr noundef %1, i32 noundef %2)
  %17 = icmp eq ptr %16, null
  br i1 %17, label %38, label %18

18:                                               ; preds = %14
  %19 = getelementptr inbounds i8, ptr %16, i64 24
  %20 = load ptr, ptr %19, align 8
  %.not35 = icmp eq ptr %20, null
  br i1 %.not35, label %36, label %21

21:                                               ; preds = %18
  %22 = getelementptr inbounds i8, ptr %4, i64 32
  %23 = load ptr, ptr %22, align 8
  %.not36 = icmp eq ptr %23, null
  %24 = getelementptr inbounds i8, ptr %4, i64 24
  %25 = getelementptr inbounds i8, ptr %23, i64 48
  %.sink = select i1 %.not36, ptr %24, ptr %25
  store ptr %20, ptr %.sink, align 8
  %26 = getelementptr inbounds i8, ptr %16, i64 32
  %27 = load ptr, ptr %26, align 8
  store ptr %27, ptr %22, align 8
  %28 = getelementptr inbounds i8, ptr %20, i64 56
  store ptr %23, ptr %28, align 8
  %.09.i = load ptr, ptr %19, align 8
  %.not10.i = icmp eq ptr %.09.i, null
  br i1 %.not10.i, label %dom_fragment_assign_parent_node.exit, label %.lr.ph.i

29:                                               ; preds = %.lr.ph.i
  %30 = getelementptr inbounds i8, ptr %.011.i, i64 48
  %.0.i = load ptr, ptr %30, align 8
  %.not.i = icmp eq ptr %.0.i, null
  br i1 %.not.i, label %dom_fragment_assign_parent_node.exit, label %.lr.ph.i

.lr.ph.i:                                         ; preds = %21, %29
  %.011.i = phi ptr [ %.0.i, %29 ], [ %.09.i, %21 ]
  %31 = getelementptr inbounds i8, ptr %.011.i, i64 40
  store ptr %4, ptr %31, align 8
  %32 = load ptr, ptr %26, align 8
  %33 = icmp eq ptr %.011.i, %32
  br i1 %33, label %dom_fragment_assign_parent_node.exit, label %29

dom_fragment_assign_parent_node.exit:             ; preds = %29, %.lr.ph.i, %21
  tail call void @llvm.memset.p0.i64(ptr noundef nonnull align 8 dereferenceable(16) %19, i8 0, i64 16, i1 false)
  %34 = getelementptr inbounds i8, ptr %4, i64 64
  %35 = load ptr, ptr %34, align 8
  tail call void @dom_reconcile_ns_list(ptr noundef %35, ptr noundef nonnull %20, ptr noundef %27) #3
  br label %36

36:                                               ; preds = %dom_fragment_assign_parent_node.exit, %18
  %37 = load ptr, ptr @xmlFree, align 8
  tail call void %37(ptr noundef nonnull %16) #3
  br label %38

38:                                               ; preds = %14, %3, %36
  ret void
}